target datalayout = "e-m:e-p270:32:32-p271:32:32-p272:64:64-i64:64-i128:128-f80:128-n8:16:32:64-S128"
target triple = "x86_64-pc-linux-gnu"

%"struct.std::array" = type { [2 x i64] }
%"class.arrow::GenericBasicDecimal" = type { %"struct.std::array" }
%"class.arrow::BasicDecimal128" = type { %"class.arrow::GenericBasicDecimal" }

; Function Attrs: mustprogress nounwind uwtable
define weak_odr void @_ZN5arrow19GenericBasicDecimalINS_15BasicDecimal128ELi128ELi2EEC2Ev(ptr noundef nonnull align 8 dereferenceable(16) %0) unnamed_addr #0 comdat($_ZN5arrow19GenericBasicDecimalINS_15BasicDecimal128ELi128ELi2EEC5Ev) align 2 {
  %2 = alloca ptr, align 8
  store ptr %0, ptr %2, align 8, !tbaa !3
  %3 = load ptr, ptr %2, align 8
  %4 = getelementptr inbounds nuw %"class.arrow::GenericBasicDecimal", ptr %3, i32 0, i32 0
  %5 = getelementptr inbounds nuw %"struct.std::array", ptr %4, i32 0, i32 0
  store i64 0, ptr %5, align 8, !tbaa !8
  %6 = getelementptr inbounds i64, ptr %5, i64 1
  %7 = getelementptr inbounds i64, ptr %5, i64 2
  br label %8

8:                                                ; preds = %8, %1
  %9 = phi ptr [ %6, %1 ], [ %10, %8 ]
  store i64 0, ptr %9, align 8, !tbaa !8
  %10 = getelementptr inbounds i64, ptr %9, i64 1
  %11 = icmp eq ptr %10, %7
  br i1 %11, label %12, label %8

12:                                               ; preds = %8
  ret void
}

; Function Attrs: mustprogress nounwind uwtable
define linkonce_odr void @_ZN5arrow15BasicDecimal128C2Ev(ptr noundef nonnull align 8 dereferenceable(16) %0) unnamed_addr #0 comdat align 2 {
  %2 = alloca ptr, align 8
  store ptr %0, ptr %2, align 8, !tbaa !154
  %3 = load ptr, ptr %2, align 8
  call void @_ZN5arrow19GenericBasicDecimalINS_15BasicDecimal128ELi128ELi2EEC2Ev(ptr noundef nonnull align 8 dereferenceable(16) %3) #12
  ret void
}

; Function Attrs: mustprogress uwtable
define { i64, i64 } @_ZN5arrowdvERKNS_15BasicDecimal128ES2_(ptr noundef nonnull align 8 dereferenceable(16) %0, ptr noundef nonnull align 8 dereferenceable(16) %1) #6 {
  %3 = alloca %"class.arrow::BasicDecimal128", align 8
  %4 = alloca ptr, align 8
  %5 = alloca ptr, align 8
  %6 = alloca %"class.arrow::BasicDecimal128", align 8
  %7 = alloca i32, align 4
  store ptr %0, ptr %4, align 8, !tbaa !154
  store ptr %1, ptr %5, align 8, !tbaa !154
  call void @llvm.lifetime.start.p0(i64 16, ptr %6) #12
  call void @_ZN5arrow15BasicDecimal128C2Ev(ptr noundef nonnull align 8 dereferenceable(16) %6) #12
  call void @_ZN5arrow15BasicDecimal128C2Ev(ptr noundef nonnull align 8 dereferenceable(16) %3) #12
  call void @llvm.lifetime.start.p0(i64 4, ptr %7) #12
  %8 = load ptr, ptr %4, align 8, !tbaa !154
  %9 = load ptr, ptr %5, align 8, !tbaa !154
  %10 = call noundef i32 @_ZNK5arrow15BasicDecimal1286DivideERKS0_PS0_S3_(ptr noundef nonnull align 8 dereferenceable(16) %8, ptr noundef nonnull align 8 dereferenceable(16) %9, ptr noundef %3, ptr noundef %6)
  store i32 %10, ptr %7, align 4, !tbaa !50
  br label %11

11:                                               ; preds = %12, %2
  br i1 false, label %12, label %13

12:                                               ; preds = %11
  br label %11, !llvm.loop !177

13:                                               ; preds = %11
  br label %14

14:                                               ; preds = %15, %13
  br i1 false, label %15, label %16

15:                                               ; preds = %14
  br label %14, !llvm.loop !178

16:                                               ; preds = %14
  br label %17

17:                                               ; preds = %18, %16
  br i1 false, label %18, label %19

18:                                               ; preds = %17
  br label %17, !llvm.loop !179

19:                                               ; preds = %17
  call void @llvm.lifetime.end.p0(i64 4, ptr %7) #12
  call void @llvm.lifetime.end.p0(i64 16, ptr %6) #12
  %20 = getelementptr inbounds nuw %"class.arrow::BasicDecimal128", ptr %3, i32 0, i32 0
  %21 = getelementptr inbounds nuw %"class.arrow::GenericBasicDecimal", ptr %20, i32 0, i32 0
  %22 = getelementptr inbounds nuw %"struct.std::array", ptr %21, i32 0, i32 0
  %23 = load { i64, i64 }, ptr %22, align 8
  ret { i64, i64 } %23
}