; Function Attrs: mustprogress nofree norecurse nosync nounwind memory(argmem: readwrite) uwtable
define { i64, i64 } @_ZN5arrowdvERKNS_15BasicDecimal128ES2_(ptr noundef nonnull readonly align 8 captures(none) dereferenceable(16) %0, ptr noundef nonnull readonly align 8 captures(none) dereferenceable(16) %1) local_unnamed_addr #8 {
  %3 = alloca %"class.arrow::BasicDecimal128", align 8
  %4 = alloca %"class.arrow::BasicDecimal128", align 8
  call void @llvm.lifetime.start.p0(i64 16, ptr nonnull %4) #15
  call void @llvm.memset.p0.i64(ptr noundef nonnull align 8 dereferenceable(16) %4, i8 0, i64 16, i1 false)
  call void @llvm.memset.p0.i64(ptr noundef nonnull align 8 dereferenceable(16) %3, i8 0, i64 16, i1 false)
  %5 = call noundef i32 @_ZNK5arrow15BasicDecimal1286DivideERKS0_PS0_S3_(ptr noundef nonnull align 8 dereferenceable(16) %0, ptr noundef nonnull align 8 dereferenceable(16) %1, ptr noundef nonnull %3, ptr noundef nonnull %4)
  call void @llvm.lifetime.end.p0(i64 16, ptr nonnull %4) #15
  %.fca.0.load = load i64, ptr %3, align 8
  %.fca.0.insert = insertvalue { i64, i64 } poison, i64 %.fca.0.load, 0
  %.fca.1.gep = getelementptr inbounds nuw i8, ptr %3, i64 8
  %.fca.1.load = load i64, ptr %.fca.1.gep, align 8
  %.fca.1.insert = insertvalue { i64, i64 } %.fca.0.insert, i64 %.fca.1.load, 1
  ret { i64, i64 } %.fca.1.insert
}